target datalayout = "e-m:e-p270:32:32-p271:32:32-p272:64:64-i64:64-i128:128-f80:128-n8:16:32:64-S128"
target triple = "x86_64-pc-linux-gnu"

%"class.datalog::rule_dependencies" = type { %class.obj_map, ptr, %class.ptr_vector, %class.expr_sparse_mark, %class.obj_hashtable.2 }
%class.obj_map = type { %class.core_hashtable }
%class.core_hashtable = type <{ ptr, i32, i32, i32, [4 x i8] }>
%class.ptr_vector = type { %class.vector }
%class.vector = type { ptr }
%class.expr_sparse_mark = type { %class.obj_hashtable }
%class.obj_hashtable = type { %class.core_hashtable.base.1, [4 x i8] }
%class.core_hashtable.base.1 = type <{ ptr, i32, i32, i32 }>
%class.obj_hashtable.2 = type { %class.core_hashtable.base.6, [4 x i8] }
%class.core_hashtable.base.6 = type <{ ptr, i32, i32, i32 }>
%struct.obj_ptr_hash.4 = type { i8 }
%struct.ptr_eq.5 = type { i8 }
%"struct.obj_map<func_decl, obj_hashtable<func_decl> *>::key_data" = type { ptr, ptr }
%class.core_hashtable.3 = type <{ ptr, i32, i32, i32, [4 x i8] }>
%class.obj_hash_entry.140 = type { ptr }
%"class.obj_map<func_decl, obj_hashtable<func_decl> *>::obj_map_entry" = type { %"struct.obj_map<func_decl, obj_hashtable<func_decl> *>::key_data" }

; Function Attrs: mustprogress nounwind uwtable
define linkonce_odr hidden void @_ZNSt12_Destroy_auxILb1EE9__destroyIP14obj_hash_entryI9func_declEEEvT_S6_(ptr noundef %0, ptr noundef %1) #5 comdat align 2 {
  %3 = alloca ptr, align 8
  %4 = alloca ptr, align 8
  store ptr %0, ptr %3, align 8, !tbaa !127
  store ptr %1, ptr %4, align 8, !tbaa !127
  ret void
}

; Function Attrs: inlinehint mustprogress nounwind uwtable
define linkonce_odr hidden void @_ZN14obj_hash_entryI9func_declEC2Ev(ptr noundef nonnull align 8 dereferenceable(8) %0) unnamed_addr #7 comdat align 2 {
  %2 = alloca ptr, align 8
  store ptr %0, ptr %2, align 8, !tbaa !127
  %3 = load ptr, ptr %2, align 8
  %4 = getelementptr inbounds nuw %class.obj_hash_entry.140, ptr %3, i32 0, i32 0
  store ptr null, ptr %4, align 8, !tbaa !432
  ret void
}

; Function Attrs: noinline noreturn nounwind uwtable
define linkonce_odr hidden void @__clang_call_terminate(ptr noundef %0) #9 comdat {
  %2 = call ptr @__cxa_begin_catch(ptr %0) #3
  call void @_ZSt9terminatev() #19
  unreachable
}

; Function Attrs: inlinehint mustprogress uwtable
define linkonce_odr hidden void @_ZSt8_DestroyIP14obj_hash_entryI9func_declEEvT_S4_(ptr noundef %0, ptr noundef %1) #6 comdat {
  %3 = alloca ptr, align 8
  %4 = alloca ptr, align 8
  store ptr %0, ptr %3, align 8, !tbaa !127
  store ptr %1, ptr %4, align 8, !tbaa !127
  %5 = load ptr, ptr %3, align 8, !tbaa !127
  %6 = load ptr, ptr %4, align 8, !tbaa !127
  call void @_ZNSt12_Destroy_auxILb1EE9__destroyIP14obj_hash_entryI9func_declEEEvT_S6_(ptr noundef %5, ptr noundef %6)
  ret void
}

; Function Attrs: inlinehint mustprogress nounwind uwtable
define linkonce_odr hidden void @_ZSt18_Construct_novalueI14obj_hash_entryI9func_declEEvPT_(ptr noundef %0) #7 comdat {
  %2 = alloca ptr, align 8
  store ptr %0, ptr %2, align 8, !tbaa !127
  %3 = load ptr, ptr %2, align 8, !tbaa !127
  call void @_ZN14obj_hash_entryI9func_declEC2Ev(ptr noundef nonnull align 8 dereferenceable(8) %3) #3
  ret void
}

; Function Attrs: mustprogress uwtable
define linkonce_odr hidden noundef ptr @_ZNSt35__uninitialized_default_novalue_n_1ILb0EE26__uninit_default_novalue_nIP14obj_hash_entryI9func_declEjEET_S6_T0_(ptr noundef %0, i32 noundef %1) #4 comdat align 2 personality ptr @__gxx_personality_v0 {
  %3 = alloca ptr, align 8
  %4 = alloca i32, align 4
  %5 = alloca ptr, align 8
  %6 = alloca ptr, align 8
  %7 = alloca i32, align 4
  store ptr %0, ptr %3, align 8, !tbaa !127
  store i32 %1, ptr %4, align 4, !tbaa !18
  call void @llvm.lifetime.start.p0(i64 8, ptr %5) #3
  %8 = load ptr, ptr %3, align 8, !tbaa !127
  store ptr %8, ptr %5, align 8, !tbaa !127
  br label %9

9:                                                ; preds = %15, %2
  %10 = load i32, ptr %4, align 4, !tbaa !18
  %11 = icmp ugt i32 %10, 0
  br i1 %11, label %12, label %30

12:                                               ; preds = %9
  %13 = load ptr, ptr %5, align 8, !tbaa !127
  invoke void @_ZSt18_Construct_novalueI14obj_hash_entryI9func_declEEvPT_(ptr noundef %13)
          to label %14 unwind label %20

14:                                               ; preds = %12
  br label %15

15:                                               ; preds = %14
  %16 = load i32, ptr %4, align 4, !tbaa !18
  %17 = add i32 %16, -1
  store i32 %17, ptr %4, align 4, !tbaa !18
  %18 = load ptr, ptr %5, align 8, !tbaa !127
  %19 = getelementptr inbounds nuw %class.obj_hash_entry.140, ptr %18, i32 1
  store ptr %19, ptr %5, align 8, !tbaa !127
  br label %9, !llvm.loop !431

20:                                               ; preds = %12
  %21 = landingpad { ptr, i32 }
          catch ptr null
  %22 = extractvalue { ptr, i32 } %21, 0
  store ptr %22, ptr %6, align 8
  %23 = extractvalue { ptr, i32 } %21, 1
  store i32 %23, ptr %7, align 4
  br label %24

24:                                               ; preds = %20
  %25 = load ptr, ptr %6, align 8
  %26 = call ptr @__cxa_begin_catch(ptr %25) #3
  %27 = load ptr, ptr %3, align 8, !tbaa !127
  %28 = load ptr, ptr %5, align 8, !tbaa !127
  invoke void @_ZSt8_DestroyIP14obj_hash_entryI9func_declEEvT_S4_(ptr noundef %27, ptr noundef %28)
          to label %29 unwind label %32

29:                                               ; preds = %24
  invoke void @__cxa_rethrow() #20
          to label %46 unwind label %32

30:                                               ; preds = %9
  %31 = load ptr, ptr %5, align 8, !tbaa !127
  call void @llvm.lifetime.end.p0(i64 8, ptr %5) #3
  ret ptr %31

32:                                               ; preds = %29, %24
  %33 = landingpad { ptr, i32 }
          cleanup
  %34 = extractvalue { ptr, i32 } %33, 0
  store ptr %34, ptr %6, align 8
  %35 = extractvalue { ptr, i32 } %33, 1
  store i32 %35, ptr %7, align 4
  invoke void @__cxa_end_catch()
          to label %36 unwind label %43

36:                                               ; preds = %32
  call void @llvm.lifetime.end.p0(i64 8, ptr %5) #3
  br label %38

37:                                               ; No predecessors!
  unreachable

38:                                               ; preds = %36
  %39 = load ptr, ptr %6, align 8
  %40 = load i32, ptr %7, align 4
  %41 = insertvalue { ptr, i32 } poison, ptr %39, 0
  %42 = insertvalue { ptr, i32 } %41, i32 %40, 1
  resume { ptr, i32 } %42

43:                                               ; preds = %32
  %44 = landingpad { ptr, i32 }
          catch ptr null
  %45 = extractvalue { ptr, i32 } %44, 0
  call void @__clang_call_terminate(ptr %45) #19
  unreachable

46:                                               ; preds = %29
  unreachable
}

; Function Attrs: inlinehint mustprogress uwtable
define linkonce_odr hidden noundef ptr @_ZSt33__uninitialized_default_novalue_nIP14obj_hash_entryI9func_declEjET_S4_T0_(ptr noundef %0, i32 noundef %1) #6 comdat {
  %3 = alloca ptr, align 8
  %4 = alloca i32, align 4
  store ptr %0, ptr %3, align 8, !tbaa !127
  store i32 %1, ptr %4, align 4, !tbaa !18
  %5 = load ptr, ptr %3, align 8, !tbaa !127
  %6 = load i32, ptr %4, align 4, !tbaa !18
  %7 = call noundef ptr @_ZNSt35__uninitialized_default_novalue_n_1ILb0EE26__uninit_default_novalue_nIP14obj_hash_entryI9func_declEjEET_S6_T0_(ptr noundef %5, i32 noundef %6)
  ret ptr %7
}

; Function Attrs: inlinehint mustprogress uwtable
define linkonce_odr hidden noundef ptr @_ZSt33uninitialized_default_construct_nIP14obj_hash_entryI9func_declEjET_S4_T0_(ptr noundef %0, i32 noundef %1) #6 comdat {
  %3 = alloca ptr, align 8
  %4 = alloca i32, align 4
  store ptr %0, ptr %3, align 8, !tbaa !127
  store i32 %1, ptr %4, align 4, !tbaa !18
  %5 = load ptr, ptr %3, align 8, !tbaa !127
  %6 = load i32, ptr %4, align 4, !tbaa !18
  %7 = call noundef ptr @_ZSt33__uninitialized_default_novalue_nIP14obj_hash_entryI9func_declEjET_S4_T0_(ptr noundef %5, i32 noundef %6)
  ret ptr %7
}

; Function Attrs: mustprogress uwtable
define linkonce_odr hidden noalias noundef ptr @_Z10alloc_vectI14obj_hash_entryI9func_declEEPT_j(i32 noundef %0) #4 comdat {
  %2 = alloca i32, align 4
  %3 = alloca ptr, align 8
  store i32 %0, ptr %2, align 4, !tbaa !18
  call void @llvm.lifetime.start.p0(i64 8, ptr %3) #3
  %4 = load i32, ptr %2, align 4, !tbaa !18
  %5 = zext i32 %4 to i64
  %6 = mul i64 8, %5
  %7 = call noalias noundef ptr @_ZN6memory8allocateEm(i64 noundef %6)
  store ptr %7, ptr %3, align 8, !tbaa !127
  %8 = load ptr, ptr %3, align 8, !tbaa !127
  %9 = load i32, ptr %2, align 4, !tbaa !18
  %10 = call noundef ptr @_ZSt33uninitialized_default_construct_nIP14obj_hash_entryI9func_declEjET_S4_T0_(ptr noundef %8, i32 noundef %9)
  %11 = load ptr, ptr %3, align 8, !tbaa !127
  call void @llvm.lifetime.end.p0(i64 8, ptr %3) #3
  ret ptr %11
}

; Function Attrs: mustprogress uwtable
define linkonce_odr hidden noundef ptr @_ZN14core_hashtableI14obj_hash_entryI9func_declE12obj_ptr_hashIS1_E6ptr_eqIS1_EE11alloc_tableEj(ptr noundef nonnull align 8 dereferenceable(20) %0, i32 noundef %1) #4 comdat align 2 {
  %3 = alloca ptr, align 8
  %4 = alloca i32, align 4
  %5 = alloca ptr, align 8
  store ptr %0, ptr %3, align 8, !tbaa !54
  store i32 %1, ptr %4, align 4, !tbaa !18
  call void @llvm.lifetime.start.p0(i64 8, ptr %5) #3
  %6 = load i32, ptr %4, align 4, !tbaa !18
  %7 = call noalias noundef ptr @_Z10alloc_vectI14obj_hash_entryI9func_declEEPT_j(i32 noundef %6)
  store ptr %7, ptr %5, align 8, !tbaa !127
  %8 = load ptr, ptr %5, align 8, !tbaa !127
  call void @llvm.lifetime.end.p0(i64 8, ptr %5) #3
  ret ptr %8
}

; Function Attrs: mustprogress uwtable
define linkonce_odr hidden noundef zeroext i1 @_ZN14core_hashtableIN7obj_mapI9func_declP13obj_hashtableIS1_EE13obj_map_entryE8obj_hashINS5_8key_dataEE10default_eqIS8_EE24insert_if_not_there_coreERKS8_RPS6_(ptr noundef nonnull align 8 dereferenceable(20) %0, ptr noundef nonnull align 8 dereferenceable(16) %1, ptr noundef nonnull align 8 dereferenceable(8) %2) #4 comdat align 2 {
  %4 = alloca ptr, align 8
  %5 = alloca ptr, align 8
  %6 = alloca ptr, align 8
  %7 = alloca %"struct.obj_map<func_decl, obj_hashtable<func_decl> *>::key_data", align 8
  store ptr %0, ptr %4, align 8, !tbaa !417
  store ptr %1, ptr %5, align 8, !tbaa !42
  store ptr %2, ptr %6, align 8, !tbaa !421
  %8 = load ptr, ptr %4, align 8
  call void @llvm.lifetime.start.p0(i64 16, ptr %7) #3
  %9 = load ptr, ptr %5, align 8, !tbaa !42
  call void @llvm.memcpy.p0.p0.i64(ptr align 8 %7, ptr align 8 %9, i64 16, i1 false), !tbaa.struct !565
  %10 = load ptr, ptr %6, align 8, !tbaa !421
  %11 = call noundef zeroext i1 @_ZN14core_hashtableIN7obj_mapI9func_declP13obj_hashtableIS1_EE13obj_map_entryE8obj_hashINS5_8key_dataEE10default_eqIS8_EE24insert_if_not_there_coreEOS8_RPS6_(ptr noundef nonnull align 8 dereferenceable(20) %8, ptr noundef nonnull align 8 dereferenceable(16) %7, ptr noundef nonnull align 8 dereferenceable(8) %10)
  call void @llvm.lifetime.end.p0(i64 16, ptr %7) #3
  ret i1 %11
}

; Function Attrs: mustprogress uwtable
define linkonce_odr hidden void @_ZN14core_hashtableI14obj_hash_entryI9func_declE12obj_ptr_hashIS1_E6ptr_eqIS1_EEC2EjRKS4_RKS6_(ptr noundef nonnull align 8 dereferenceable(20) %0, i32 noundef %1, ptr noundef nonnull align 1 dereferenceable(1) %2, ptr noundef nonnull align 1 dereferenceable(1) %3) unnamed_addr #4 comdat align 2 {
  %5 = alloca ptr, align 8
  %6 = alloca i32, align 4
  %7 = alloca ptr, align 8
  %8 = alloca ptr, align 8
  store ptr %0, ptr %5, align 8, !tbaa !54
  store i32 %1, ptr %6, align 4, !tbaa !18
  store ptr %2, ptr %7, align 8, !tbaa !529
  store ptr %3, ptr %8, align 8, !tbaa !531
  %9 = load ptr, ptr %5, align 8
  %10 = load i32, ptr %6, align 4, !tbaa !18
  %11 = call noundef ptr @_ZN14core_hashtableI14obj_hash_entryI9func_declE12obj_ptr_hashIS1_E6ptr_eqIS1_EE11alloc_tableEj(ptr noundef nonnull align 8 dereferenceable(20) %9, i32 noundef %10)
  %12 = getelementptr inbounds nuw %class.core_hashtable.3, ptr %9, i32 0, i32 0
  store ptr %11, ptr %12, align 8, !tbaa !56
  %13 = load i32, ptr %6, align 4, !tbaa !18
  %14 = getelementptr inbounds nuw %class.core_hashtable.3, ptr %9, i32 0, i32 1
  store i32 %13, ptr %14, align 8, !tbaa !57
  %15 = getelementptr inbounds nuw %class.core_hashtable.3, ptr %9, i32 0, i32 2
  store i32 0, ptr %15, align 4, !tbaa !130
  %16 = getelementptr inbounds nuw %class.core_hashtable.3, ptr %9, i32 0, i32 3
  store i32 0, ptr %16, align 8, !tbaa !131
  ret void
}

; Function Attrs: mustprogress nounwind uwtable
define linkonce_odr hidden noundef nonnull align 8 dereferenceable(16) ptr @_ZN7obj_mapI9func_declP13obj_hashtableIS0_EE13obj_map_entry8get_dataEv(ptr noundef nonnull align 8 dereferenceable(16) %0) #5 comdat align 2 {
  %2 = alloca ptr, align 8
  store ptr %0, ptr %2, align 8, !tbaa !63
  %3 = load ptr, ptr %2, align 8
  %4 = getelementptr inbounds nuw %"class.obj_map<func_decl, obj_hashtable<func_decl> *>::obj_map_entry", ptr %3, i32 0, i32 0
  ret ptr %4
}

; Function Attrs: mustprogress uwtable
define linkonce_odr hidden noundef ptr @_ZN14core_hashtableIN7obj_mapI9func_declP13obj_hashtableIS1_EE13obj_map_entryE8obj_hashINS5_8key_dataEE10default_eqIS8_EE20insert_if_not_there2ERKS8_(ptr noundef nonnull align 8 dereferenceable(20) %0, ptr noundef nonnull align 8 dereferenceable(16) %1) #4 comdat align 2 {
  %3 = alloca ptr, align 8
  %4 = alloca ptr, align 8
  %5 = alloca ptr, align 8
  store ptr %0, ptr %3, align 8, !tbaa !417
  store ptr %1, ptr %4, align 8, !tbaa !42
  %6 = load ptr, ptr %3, align 8
  call void @llvm.lifetime.start.p0(i64 8, ptr %5) #3
  store ptr null, ptr %5, align 8, !tbaa !63
  %7 = load ptr, ptr %4, align 8, !tbaa !42
  %8 = call noundef zeroext i1 @_ZN14core_hashtableIN7obj_mapI9func_declP13obj_hashtableIS1_EE13obj_map_entryE8obj_hashINS5_8key_dataEE10default_eqIS8_EE24insert_if_not_there_coreERKS8_RPS6_(ptr noundef nonnull align 8 dereferenceable(20) %6, ptr noundef nonnull align 8 dereferenceable(16) %7, ptr noundef nonnull align 8 dereferenceable(8) %5)
  %9 = load ptr, ptr %5, align 8, !tbaa !63
  call void @llvm.lifetime.end.p0(i64 8, ptr %5) #3
  ret ptr %9
}

; Function Attrs: mustprogress nounwind uwtable
define linkonce_odr hidden void @_ZN7obj_mapI9func_declP13obj_hashtableIS0_EE8key_dataC2EPS0_RKS3_(ptr noundef nonnull align 8 dereferenceable(16) %0, ptr noundef %1, ptr noundef nonnull align 8 dereferenceable(8) %2) unnamed_addr #5 comdat align 2 {
  %4 = alloca ptr, align 8
  %5 = alloca ptr, align 8
  %6 = alloca ptr, align 8
  store ptr %0, ptr %4, align 8, !tbaa !42
  store ptr %1, ptr %5, align 8, !tbaa !47
  store ptr %2, ptr %6, align 8, !tbaa !52
  %7 = load ptr, ptr %4, align 8
  %8 = getelementptr inbounds nuw %"struct.obj_map<func_decl, obj_hashtable<func_decl> *>::key_data", ptr %7, i32 0, i32 0
  %9 = load ptr, ptr %5, align 8, !tbaa !47
  store ptr %9, ptr %8, align 8, !tbaa !44
  %10 = getelementptr inbounds nuw %"struct.obj_map<func_decl, obj_hashtable<func_decl> *>::key_data", ptr %7, i32 0, i32 1
  %11 = load ptr, ptr %6, align 8, !tbaa !52
  %12 = load ptr, ptr %11, align 8, !tbaa !16
  store ptr %12, ptr %10, align 8, !tbaa !62
  ret void
}

; Function Attrs: mustprogress uwtable
define linkonce_odr hidden void @_ZN13obj_hashtableI9func_declEC2Ej(ptr noundef nonnull align 8 dereferenceable(20) %0, i32 noundef %1) unnamed_addr #4 comdat align 2 {
  %3 = alloca ptr, align 8
  %4 = alloca i32, align 4
  %5 = alloca %struct.obj_ptr_hash.4, align 1
  %6 = alloca %struct.ptr_eq.5, align 1
  store ptr %0, ptr %3, align 8, !tbaa !16
  store i32 %1, ptr %4, align 4, !tbaa !18
  %7 = load ptr, ptr %3, align 8
  %8 = load i32, ptr %4, align 4, !tbaa !18
  call void @llvm.lifetime.start.p0(i64 1, ptr %5) #3
  call void @llvm.lifetime.start.p0(i64 1, ptr %6) #3
  call void @_ZN14core_hashtableI14obj_hash_entryI9func_declE12obj_ptr_hashIS1_E6ptr_eqIS1_EEC2EjRKS4_RKS6_(ptr noundef nonnull align 8 dereferenceable(20) %7, i32 noundef %8, ptr noundef nonnull align 1 dereferenceable(1) %5, ptr noundef nonnull align 1 dereferenceable(1) %6)
  call void @llvm.lifetime.end.p0(i64 1, ptr %6) #3
  call void @llvm.lifetime.end.p0(i64 1, ptr %5) #3
  ret void
}

; Function Attrs: mustprogress uwtable
define linkonce_odr hidden noundef nonnull align 8 dereferenceable(8) ptr @_ZN7obj_mapI9func_declP13obj_hashtableIS0_EE19insert_if_not_thereEPS0_RKS3_(ptr noundef nonnull align 8 dereferenceable(24) %0, ptr noundef %1, ptr noundef nonnull align 8 dereferenceable(8) %2) #4 comdat align 2 {
  %4 = alloca ptr, align 8
  %5 = alloca ptr, align 8
  %6 = alloca ptr, align 8
  %7 = alloca %"struct.obj_map<func_decl, obj_hashtable<func_decl> *>::key_data", align 8
  store ptr %0, ptr %4, align 8, !tbaa !10
  store ptr %1, ptr %5, align 8, !tbaa !47
  store ptr %2, ptr %6, align 8, !tbaa !52
  %8 = load ptr, ptr %4, align 8
  %9 = getelementptr inbounds nuw %class.obj_map, ptr %8, i32 0, i32 0
  call void @llvm.lifetime.start.p0(i64 16, ptr %7) #3
  %10 = load ptr, ptr %5, align 8, !tbaa !47
  %11 = load ptr, ptr %6, align 8, !tbaa !52
  call void @_ZN7obj_mapI9func_declP13obj_hashtableIS0_EE8key_dataC2EPS0_RKS3_(ptr noundef nonnull align 8 dereferenceable(16) %7, ptr noundef %10, ptr noundef nonnull align 8 dereferenceable(8) %11)
  %12 = call noundef ptr @_ZN14core_hashtableIN7obj_mapI9func_declP13obj_hashtableIS1_EE13obj_map_entryE8obj_hashINS5_8key_dataEE10default_eqIS8_EE20insert_if_not_there2ERKS8_(ptr noundef nonnull align 8 dereferenceable(20) %9, ptr noundef nonnull align 8 dereferenceable(16) %7)
  %13 = call noundef nonnull align 8 dereferenceable(16) ptr @_ZN7obj_mapI9func_declP13obj_hashtableIS0_EE13obj_map_entry8get_dataEv(ptr noundef nonnull align 8 dereferenceable(16) %12)
  %14 = getelementptr inbounds nuw %"struct.obj_map<func_decl, obj_hashtable<func_decl> *>::key_data", ptr %13, i32 0, i32 1
  call void @llvm.lifetime.end.p0(i64 16, ptr %7) #3
  ret ptr %14
}

; Function Attrs: mustprogress uwtable
define linkonce_odr hidden void @_ZN14core_hashtableI14obj_hash_entryI9func_declE12obj_ptr_hashIS1_E6ptr_eqIS1_EE6insertERKPS1_(ptr noundef nonnull align 8 dereferenceable(20) %0, ptr noundef nonnull align 8 dereferenceable(8) %1) #4 comdat align 2 {
  %3 = alloca ptr, align 8
  %4 = alloca ptr, align 8
  %5 = alloca ptr, align 8
  store ptr %0, ptr %3, align 8, !tbaa !54
  store ptr %1, ptr %4, align 8, !tbaa !64
  %6 = load ptr, ptr %3, align 8
  call void @llvm.lifetime.start.p0(i64 8, ptr %5) #3
  %7 = load ptr, ptr %4, align 8, !tbaa !64
  %8 = load ptr, ptr %7, align 8, !tbaa !47
  store ptr %8, ptr %5, align 8, !tbaa !47
  call void @_ZN14core_hashtableI14obj_hash_entryI9func_declE12obj_ptr_hashIS1_E6ptr_eqIS1_EE6insertEOPS1_(ptr noundef nonnull align 8 dereferenceable(20) %6, ptr noundef nonnull align 8 dereferenceable(8) %5)
  call void @llvm.lifetime.end.p0(i64 8, ptr %5) #3
  ret void
}

; Function Attrs: mustprogress uwtable
define hidden noundef nonnull align 8 dereferenceable(20) ptr @_ZN7datalog17rule_dependencies10ensure_keyEP9func_decl(ptr noundef nonnull align 8 dereferenceable(88) %0, ptr noundef %1) #4 align 2 {
  %3 = alloca ptr, align 8
  %4 = alloca ptr, align 8
  %5 = alloca ptr, align 8
  %6 = alloca ptr, align 8
  store ptr %0, ptr %3, align 8, !tbaa !3
  store ptr %1, ptr %4, align 8, !tbaa !47
  %7 = load ptr, ptr %3, align 8
  call void @llvm.lifetime.start.p0(i64 8, ptr %5) #3
  %8 = getelementptr inbounds nuw %"class.datalog::rule_dependencies", ptr %7, i32 0, i32 0
  %9 = load ptr, ptr %4, align 8, !tbaa !47
  call void @llvm.lifetime.start.p0(i64 8, ptr %6) #3
  store ptr null, ptr %6, align 8, !tbaa !16
  %10 = call noundef nonnull align 8 dereferenceable(8) ptr @_ZN7obj_mapI9func_declP13obj_hashtableIS0_EE19insert_if_not_thereEPS0_RKS3_(ptr noundef nonnull align 8 dereferenceable(24) %8, ptr noundef %9, ptr noundef nonnull align 8 dereferenceable(8) %6)
  call void @llvm.lifetime.end.p0(i64 8, ptr %6) #3
  store ptr %10, ptr %5, align 8, !tbaa !52
  %11 = load ptr, ptr %5, align 8, !tbaa !52
  %12 = load ptr, ptr %11, align 8, !tbaa !16
  %13 = icmp ne ptr %12, null
  br i1 %13, label %17, label %14

14:                                               ; preds = %2
  %15 = call noalias noundef ptr @_ZN6memory8allocateEm(i64 noundef 24)
  call void @_ZN13obj_hashtableI9func_declEC2Ej(ptr noundef nonnull align 8 dereferenceable(20) %15, i32 noundef 8)
  %16 = load ptr, ptr %5, align 8, !tbaa !52
  store ptr %15, ptr %16, align 8, !tbaa !16
  br label %17

17:                                               ; preds = %14, %2
  %18 = load ptr, ptr %5, align 8, !tbaa !52
  %19 = load ptr, ptr %18, align 8, !tbaa !16
  call void @llvm.lifetime.end.p0(i64 8, ptr %5) #3
  ret ptr %19
}

; Function Attrs: mustprogress uwtable
define hidden void @_ZN7datalog17rule_dependencies6insertEP9func_declS2_(ptr noundef nonnull align 8 dereferenceable(88) %0, ptr noundef %1, ptr noundef %2) #4 align 2 {
  %4 = alloca ptr, align 8
  %5 = alloca ptr, align 8
  %6 = alloca ptr, align 8
  %7 = alloca ptr, align 8
  store ptr %0, ptr %4, align 8, !tbaa !3
  store ptr %1, ptr %5, align 8, !tbaa !47
  store ptr %2, ptr %6, align 8, !tbaa !47
  %8 = load ptr, ptr %4, align 8
  call void @llvm.lifetime.start.p0(i64 8, ptr %7) #3
  %9 = load ptr, ptr %5, align 8, !tbaa !47
  %10 = call noundef nonnull align 8 dereferenceable(20) ptr @_ZN7datalog17rule_dependencies10ensure_keyEP9func_decl(ptr noundef nonnull align 8 dereferenceable(88) %8, ptr noundef %9)
  store ptr %10, ptr %7, align 8, !tbaa !16
  %11 = load ptr, ptr %7, align 8, !tbaa !16
  call void @_ZN14core_hashtableI14obj_hash_entryI9func_declE12obj_ptr_hashIS1_E6ptr_eqIS1_EE6insertERKPS1_(ptr noundef nonnull align 8 dereferenceable(20) %11, ptr noundef nonnull align 8 dereferenceable(8) %6)
  call void @llvm.lifetime.end.p0(i64 8, ptr %7) #3
  ret void
}