; Function Attrs: mustprogress uwtable
define hidden void @_ZN7datalog17rule_dependencies6insertEP9func_declS2_(ptr noundef nonnull align 8 dereferenceable(88) %0, ptr noundef %1, ptr noundef %2) local_unnamed_addr #3 align 2 personality ptr @__gxx_personality_v0 {
  %4 = alloca ptr, align 8
  %5 = alloca %"struct.obj_map<func_decl, obj_hashtable<func_decl> *>::key_data", align 8
  %6 = alloca ptr, align 8
  call void @llvm.lifetime.start.p0(i64 8, ptr nonnull %6) #20
  store ptr null, ptr %6, align 8, !tbaa !52
  call void @llvm.lifetime.start.p0(i64 16, ptr nonnull %5) #20
  store ptr %1, ptr %5, align 8, !tbaa !53
  %.sroa.4.0..sroa_idx.i.i = getelementptr inbounds nuw i8, ptr %5, i64 8
  store ptr null, ptr %.sroa.4.0..sroa_idx.i.i, align 8, !tbaa !51
  %7 = call noundef zeroext i1 @_ZN14core_hashtableIN7obj_mapI9func_declP13obj_hashtableIS1_EE13obj_map_entryE8obj_hashINS5_8key_dataEE10default_eqIS8_EE24insert_if_not_there_coreEOS8_RPS6_(ptr noundef nonnull align 8 dereferenceable(88) %0, ptr noundef nonnull align 8 dereferenceable(16) %5, ptr noundef nonnull align 8 dereferenceable(8) %6)
  call void @llvm.lifetime.end.p0(i64 16, ptr nonnull %5) #20
  %8 = load ptr, ptr %6, align 8, !tbaa !52
  call void @llvm.lifetime.end.p0(i64 8, ptr nonnull %6) #20
  %9 = getelementptr inbounds nuw i8, ptr %8, i64 8
  %10 = load ptr, ptr %9, align 8, !tbaa !51
  %.not.i = icmp eq ptr %10, null
  br i1 %.not.i, label %11, label %_ZN7datalog17rule_dependencies10ensure_keyEP9func_decl.exit

11:                                               ; preds = %3
  %12 = call noalias noundef ptr @_ZN6memory8allocateEm(i64 noundef 24)
  %13 = call noalias noundef ptr @_ZN6memory8allocateEm(i64 noundef 64)
  call void @llvm.memset.p0.i64(ptr noundef nonnull align 8 dereferenceable(64) %13, i8 0, i64 64, i1 false), !tbaa !28
  store ptr %13, ptr %12, align 8, !tbaa !31
  %14 = getelementptr inbounds nuw i8, ptr %12, i64 8
  store i32 8, ptr %14, align 8, !tbaa !34
  %15 = getelementptr inbounds nuw i8, ptr %12, i64 12
  store i32 0, ptr %15, align 4, !tbaa !35
  %16 = getelementptr inbounds nuw i8, ptr %12, i64 16
  store i32 0, ptr %16, align 8, !tbaa !36
  store ptr %12, ptr %9, align 8, !tbaa !51
  br label %_ZN7datalog17rule_dependencies10ensure_keyEP9func_decl.exit

_ZN7datalog17rule_dependencies10ensure_keyEP9func_decl.exit: ; preds = %3, %11
  %17 = phi ptr [ %12, %11 ], [ %10, %3 ]
  call void @llvm.lifetime.start.p0(i64 8, ptr nonnull %4) #20
  store ptr %2, ptr %4, align 8, !tbaa !53
  call void @_ZN14core_hashtableI14obj_hash_entryI9func_declE12obj_ptr_hashIS1_E6ptr_eqIS1_EE6insertEOPS1_(ptr noundef nonnull align 8 dereferenceable(20) %17, ptr noundef nonnull align 8 dereferenceable(8) %4)
  call void @llvm.lifetime.end.p0(i64 8, ptr nonnull %4) #20
  ret void
}